target datalayout = "e-m:e-p270:32:32-p271:32:32-p272:64:64-i64:64-i128:128-f80:128-n8:16:32:64-S128"
target triple = "x86_64-pc-linux-gnu"

%struct.ident_t = type { i32, i32, i32, i32, ptr }
%"class.std::vector.0" = type { %"struct.std::_Vector_base.1" }
%"struct.std::_Vector_base.1" = type { %"struct.std::_Vector_base<int, std::allocator<int>>::_Vector_impl" }
%"struct.std::_Vector_base<int, std::allocator<int>>::_Vector_impl" = type { %"struct.std::_Vector_base<int, std::allocator<int>>::_Vector_impl_data" }
%"struct.std::_Vector_base<int, std::allocator<int>>::_Vector_impl_data" = type { ptr, ptr, ptr }
%"struct.faiss::NNDescent" = type { i8, i32, i32, i32, i32, i32, i32, i32, i32, i32, %"class.std::vector.7", %"class.std::vector.0" }
%"class.std::vector.7" = type { %"struct.std::_Vector_base.8" }
%"struct.std::_Vector_base.8" = type { %"struct.std::_Vector_base<faiss::nndescent::Nhood, std::allocator<faiss::nndescent::Nhood>>::_Vector_impl" }
%"struct.std::_Vector_base<faiss::nndescent::Nhood, std::allocator<faiss::nndescent::Nhood>>::_Vector_impl" = type { %"struct.std::_Vector_base<faiss::nndescent::Nhood, std::allocator<faiss::nndescent::Nhood>>::_Vector_impl_data" }
%"struct.std::_Vector_base<faiss::nndescent::Nhood, std::allocator<faiss::nndescent::Nhood>>::_Vector_impl_data" = type { ptr, ptr, ptr }

@1 = private unnamed_addr constant %struct.ident_t { i32 0, i32 2, i32 0, i32 22, ptr @0 }, align 8

; Function Attrs: inlinehint mustprogress nounwind uwtable
define linkonce_odr noundef nonnull align 8 dereferenceable(8) ptr @_ZSt3minIlERKT_S2_S2_(ptr noundef nonnull align 8 dereferenceable(8) %0, ptr noundef nonnull align 8 dereferenceable(8) %1) #6 comdat {
  %3 = alloca ptr, align 8
  %4 = alloca ptr, align 8
  %5 = alloca ptr, align 8
  store ptr %0, ptr %4, align 8, !tbaa !71
  store ptr %1, ptr %5, align 8, !tbaa !71
  %6 = load ptr, ptr %5, align 8, !tbaa !71
  %7 = load i64, ptr %6, align 8, !tbaa !33
  %8 = load ptr, ptr %4, align 8, !tbaa !71
  %9 = load i64, ptr %8, align 8, !tbaa !33
  %10 = icmp slt i64 %7, %9
  br i1 %10, label %11, label %13

11:                                               ; preds = %2
  %12 = load ptr, ptr %5, align 8, !tbaa !71
  store ptr %12, ptr %3, align 8
  br label %15

13:                                               ; preds = %2
  %14 = load ptr, ptr %4, align 8, !tbaa !71
  store ptr %14, ptr %3, align 8
  br label %15

15:                                               ; preds = %13, %11
  %16 = load ptr, ptr %3, align 8
  ret ptr %16
}

; Function Attrs: mustprogress uwtable
define void @_ZN5faiss9NNDescent4joinERNS_16DistanceComputerE(ptr noundef nonnull align 8 dereferenceable(88) %0, ptr noundef nonnull align 8 dereferenceable(8) %1) #0 align 2 {
  %3 = alloca ptr, align 8
  %4 = alloca ptr, align 8
  %5 = alloca i64, align 8
  %6 = alloca i64, align 8
  %7 = alloca i64, align 8
  %8 = alloca i64, align 8
  %9 = alloca i64, align 8
  store ptr %0, ptr %3, align 8, !tbaa !143
  store ptr %1, ptr %4, align 8, !tbaa !174
  %10 = load ptr, ptr %3, align 8
  call void @llvm.lifetime.start.p0(i64 8, ptr %5) #16
  %11 = getelementptr inbounds nuw %"struct.faiss::NNDescent", ptr %10, i32 0, i32 7
  %12 = load i32, ptr %11, align 4, !tbaa !157
  %13 = getelementptr inbounds nuw %"struct.faiss::NNDescent", ptr %10, i32 0, i32 4
  %14 = load i32, ptr %13, align 8, !tbaa !154
  %15 = mul nsw i32 %12, %14
  %16 = sext i32 %15 to i64
  %17 = call noundef i64 @_ZN5faiss17InterruptCallback15get_period_hintEm(i64 noundef %16)
  store i64 %17, ptr %5, align 8, !tbaa !33
  call void @llvm.lifetime.start.p0(i64 8, ptr %6) #16
  store i64 0, ptr %6, align 8, !tbaa !33
  br label %18

18:                                               ; preds = %35, %2
  %19 = load i64, ptr %6, align 8, !tbaa !33
  %20 = getelementptr inbounds nuw %"struct.faiss::NNDescent", ptr %10, i32 0, i32 9
  %21 = load i32, ptr %20, align 4, !tbaa !158
  %22 = sext i32 %21 to i64
  %23 = icmp slt i64 %19, %22
  br i1 %23, label %25, label %24

24:                                               ; preds = %18
  call void @llvm.lifetime.end.p0(i64 8, ptr %6) #16
  br label %39

25:                                               ; preds = %18
  call void @llvm.lifetime.start.p0(i64 8, ptr %7) #16
  call void @llvm.lifetime.start.p0(i64 8, ptr %8) #16
  %26 = load i64, ptr %6, align 8, !tbaa !33
  %27 = load i64, ptr %5, align 8, !tbaa !33
  %28 = add nsw i64 %26, %27
  store i64 %28, ptr %8, align 8, !tbaa !33
  call void @llvm.lifetime.start.p0(i64 8, ptr %9) #16
  %29 = getelementptr inbounds nuw %"struct.faiss::NNDescent", ptr %10, i32 0, i32 9
  %30 = load i32, ptr %29, align 4, !tbaa !158
  %31 = sext i32 %30 to i64
  store i64 %31, ptr %9, align 8, !tbaa !33
  %32 = call noundef nonnull align 8 dereferenceable(8) ptr @_ZSt3minIlERKT_S2_S2_(ptr noundef nonnull align 8 dereferenceable(8) %8, ptr noundef nonnull align 8 dereferenceable(8) %9)
  %33 = load i64, ptr %32, align 8, !tbaa !33
  call void @llvm.lifetime.end.p0(i64 8, ptr %9) #16
  call void @llvm.lifetime.end.p0(i64 8, ptr %8) #16
  store i64 %33, ptr %7, align 8, !tbaa !33
  %34 = load ptr, ptr %4, align 8, !tbaa !174
  call void (ptr, i32, ptr, ...) @__kmpc_fork_call(ptr @1, i32 4, ptr @_ZN5faiss9NNDescent4joinERNS_16DistanceComputerE.omp_outlined, ptr %7, ptr %6, ptr %10, ptr %34)
  call void @_ZN5faiss17InterruptCallback5checkEv()
  call void @llvm.lifetime.end.p0(i64 8, ptr %7) #16
  br label %35

35:                                               ; preds = %25
  %36 = load i64, ptr %5, align 8, !tbaa !33
  %37 = load i64, ptr %6, align 8, !tbaa !33
  %38 = add nsw i64 %37, %36
  store i64 %38, ptr %6, align 8, !tbaa !33
  br label %18, !llvm.loop !176

39:                                               ; preds = %24
  call void @llvm.lifetime.end.p0(i64 8, ptr %5) #16
  ret void
}