; Function Attrs: mustprogress uwtable
define void @_ZN5faiss9NNDescent4joinERNS_16DistanceComputerE(ptr noundef nonnull align 8 dereferenceable(88) %0, ptr noundef nonnull align 8 dereferenceable(8) %1) local_unnamed_addr #0 align 2 {
  %3 = alloca i64, align 8
  %4 = alloca i64, align 8
  %5 = getelementptr inbounds nuw i8, ptr %0, i64 28
  %6 = load i32, ptr %5, align 4, !tbaa !80
  %7 = getelementptr inbounds nuw i8, ptr %0, i64 16
  %8 = load i32, ptr %7, align 8, !tbaa !77
  %9 = mul nsw i32 %8, %6
  %10 = sext i32 %9 to i64
  %11 = tail call noundef i64 @_ZN5faiss17InterruptCallback15get_period_hintEm(i64 noundef %10)
  call void @llvm.lifetime.start.p0(i64 8, ptr nonnull %3) #17
  %12 = getelementptr inbounds nuw i8, ptr %0, i64 36
  store i64 0, ptr %3, align 8, !tbaa !54
  %13 = load i32, ptr %12, align 4, !tbaa !86
  %14 = icmp sgt i32 %13, 0
  br i1 %14, label %.lr.ph.preheader, label %._crit_edge

.lr.ph.preheader:                                 ; preds = %2
  %15 = zext nneg i32 %13 to i64
  br label %.lr.ph

._crit_edge:                                      ; preds = %.lr.ph, %2
  call void @llvm.lifetime.end.p0(i64 8, ptr nonnull %3) #17
  ret void

.lr.ph:                                           ; preds = %.lr.ph.preheader, %.lr.ph
  %16 = phi i64 [ %21, %.lr.ph ], [ %15, %.lr.ph.preheader ]
  %storemerge6 = phi i64 [ %19, %.lr.ph ], [ 0, %.lr.ph.preheader ]
  call void @llvm.lifetime.start.p0(i64 8, ptr nonnull %4) #17
  %17 = add nsw i64 %storemerge6, %11
  %.sroa.speculated = call i64 @llvm.smin.i64(i64 %17, i64 %16)
  store i64 %.sroa.speculated, ptr %4, align 8, !tbaa !54
  call void (ptr, i32, ptr, ...) @__kmpc_fork_call(ptr nonnull @1, i32 4, ptr nonnull @_ZN5faiss9NNDescent4joinERNS_16DistanceComputerE.omp_outlined, ptr nonnull %4, ptr nonnull %3, ptr nonnull %0, ptr nonnull %1)
  call void @_ZN5faiss17InterruptCallback5checkEv()
  call void @llvm.lifetime.end.p0(i64 8, ptr nonnull %4) #17
  %18 = load i64, ptr %3, align 8, !tbaa !54
  %19 = add nsw i64 %18, %11
  store i64 %19, ptr %3, align 8, !tbaa !54
  %20 = load i32, ptr %12, align 4, !tbaa !86
  %21 = sext i32 %20 to i64
  %22 = icmp slt i64 %19, %21
  br i1 %22, label %.lr.ph, label %._crit_edge, !llvm.loop !87
}